; Function Attrs: mustprogress nounwind uwtable
define void @_ZN2cv4gapi3wip6onevpl16FileDataProviderD2Ev(ptr noundef nonnull align 8 captures(none) dereferenceable(32) initializes((0, 8)) %0) unnamed_addr #7 align 2 personality ptr @__gxx_personality_v0 {
  store ptr getelementptr inbounds nuw inrange(-16, 40) (i8, ptr @_ZTVN2cv4gapi3wip6onevpl16FileDataProviderE, i64 16), ptr %0, align 8, !tbaa !3
  %2 = getelementptr inbounds nuw i8, ptr %0, i64 16
  %3 = load ptr, ptr %2, align 8, !tbaa !33
  %.not.i = icmp eq ptr %3, null
  br i1 %.not.i, label %_ZNSt10unique_ptrI8_IO_FILEPFiPS0_EED2Ev.exit, label %4

4:                                                ; preds = %1
  %5 = getelementptr inbounds nuw i8, ptr %0, i64 8
  %6 = load ptr, ptr %5, align 8, !tbaa !34
  %7 = invoke noundef i32 %6(ptr noundef nonnull %3)
          to label %_ZNSt10unique_ptrI8_IO_FILEPFiPS0_EED2Ev.exit unwind label %8

8:                                                ; preds = %4
  %9 = landingpad { ptr, i32 }
          catch ptr null
  %10 = extractvalue { ptr, i32 } %9, 0
  tail call void @__clang_call_terminate(ptr %10) #17
  unreachable

_ZNSt10unique_ptrI8_IO_FILEPFiPS0_EED2Ev.exit:    ; preds = %1, %4
  store ptr null, ptr %2, align 8, !tbaa !33
  ret void
}